; Function Attrs: nounwind uwtable
define hidden void @uv__io_close(ptr noundef %0, ptr noundef %1) local_unnamed_addr #0 {
  %3 = getelementptr inbounds nuw i8, ptr %1, i64 48
  %4 = load i32, ptr %3, align 8
  %5 = icmp eq i32 %4, -1
  br i1 %5, label %uv__io_stop.exit, label %6

6:                                                ; preds = %2
  %7 = getelementptr inbounds nuw i8, ptr %0, i64 112
  %8 = load i32, ptr %7, align 8
  %.not.i = icmp ult i32 %4, %8
  br i1 %.not.i, label %9, label %uv__io_stop.exit

9:                                                ; preds = %6
  %10 = getelementptr inbounds nuw i8, ptr %1, i64 40
  %11 = load i32, ptr %10, align 8
  %12 = and i32 %11, -8200
  store i32 %12, ptr %10, align 8
  %13 = icmp eq i32 %12, 0
  %14 = getelementptr inbounds nuw i8, ptr %1, i64 24
  %15 = load ptr, ptr %14, align 8
  br i1 %13, label %16, label %33

16:                                               ; preds = %9
  %17 = getelementptr inbounds nuw i8, ptr %1, i64 32
  %18 = load ptr, ptr %17, align 8
  store ptr %15, ptr %18, align 8
  %19 = load ptr, ptr %17, align 8
  %20 = getelementptr inbounds nuw i8, ptr %15, i64 8
  store ptr %19, ptr %20, align 8
  store ptr %14, ptr %14, align 8
  store ptr %14, ptr %17, align 8
  %21 = getelementptr inbounds nuw i8, ptr %1, i64 44
  store i32 0, ptr %21, align 4
  %22 = getelementptr inbounds nuw i8, ptr %0, i64 104
  %23 = load ptr, ptr %22, align 8
  %24 = load i32, ptr %3, align 8
  %25 = sext i32 %24 to i64
  %26 = getelementptr inbounds ptr, ptr %23, i64 %25
  %27 = load ptr, ptr %26, align 8
  %28 = icmp eq ptr %1, %27
  br i1 %28, label %29, label %uv__io_stop.exit

29:                                               ; preds = %16
  store ptr null, ptr %26, align 8
  %30 = getelementptr inbounds nuw i8, ptr %0, i64 116
  %31 = load i32, ptr %30, align 4
  %32 = add i32 %31, -1
  store i32 %32, ptr %30, align 4
  br label %uv__io_stop.exit

33:                                               ; preds = %9
  %.not18.i = icmp eq ptr %14, %15
  br i1 %.not18.i, label %34, label %uv__io_stop.exit

34:                                               ; preds = %33
  %35 = getelementptr inbounds nuw i8, ptr %0, i64 88
  store ptr %35, ptr %14, align 8
  %36 = getelementptr inbounds nuw i8, ptr %0, i64 96
  %37 = load ptr, ptr %36, align 8
  %38 = getelementptr inbounds nuw i8, ptr %1, i64 32
  store ptr %37, ptr %38, align 8
  store ptr %14, ptr %37, align 8
  store ptr %14, ptr %36, align 8
  br label %uv__io_stop.exit

uv__io_stop.exit:                                 ; preds = %2, %6, %16, %29, %33, %34
  %39 = getelementptr inbounds nuw i8, ptr %1, i64 8
  %40 = load ptr, ptr %39, align 8
  %41 = getelementptr inbounds nuw i8, ptr %1, i64 16
  %42 = load ptr, ptr %41, align 8
  store ptr %40, ptr %42, align 8
  %43 = load ptr, ptr %41, align 8
  %44 = getelementptr inbounds nuw i8, ptr %40, i64 8
  store ptr %43, ptr %44, align 8
  %45 = load i32, ptr %3, align 8
  %.not = icmp eq i32 %45, -1
  br i1 %.not, label %47, label %46

46:                                               ; preds = %uv__io_stop.exit
  tail call void @uv__platform_invalidate_fd(ptr noundef %0, i32 noundef %45) #23
  br label %47

47:                                               ; preds = %46, %uv__io_stop.exit
  ret void
}